target datalayout = "e-m:e-p270:32:32-p271:32:32-p272:64:64-i64:64-i128:128-f80:128-n8:16:32:64-S128"
target triple = "x86_64-pc-linux-gnu"

@hf_cigi3_3_symbol_surface_definition_surface_id = internal global i32 0, align 4
@hf_cigi3_3_symbol_surface_definition_surface_state = internal global i32 0, align 4
@hf_cigi3_3_symbol_surface_definition_attach_type = internal global i32 0, align 4
@hf_cigi3_3_symbol_surface_definition_billboard = internal global i32 0, align 4
@hf_cigi3_3_symbol_surface_definition_perspective_growth_enable = internal global i32 0, align 4
@hf_cigi3_3_symbol_surface_definition_entity_view_id = internal global i32 0, align 4
@hf_cigi3_3_symbol_surface_definition_xoff_left = internal global i32 0, align 4
@hf_cigi3_3_symbol_surface_definition_yoff_right = internal global i32 0, align 4
@hf_cigi3_3_symbol_surface_definition_zoff_top = internal global i32 0, align 4
@hf_cigi3_3_symbol_surface_definition_yaw_bottom = internal global i32 0, align 4
@hf_cigi3_3_symbol_surface_definition_pitch = internal global i32 0, align 4
@hf_cigi3_3_symbol_surface_definition_roll = internal global i32 0, align 4
@hf_cigi3_3_symbol_surface_definition_width = internal global i32 0, align 4
@hf_cigi3_3_symbol_surface_definition_height = internal global i32 0, align 4
@hf_cigi3_3_symbol_surface_definition_min_u = internal global i32 0, align 4
@hf_cigi3_3_symbol_surface_definition_max_u = internal global i32 0, align 4
@hf_cigi3_3_symbol_surface_definition_min_v = internal global i32 0, align 4
@hf_cigi3_3_symbol_surface_definition_max_v = internal global i32 0, align 4
@cigi_byte_order = internal global i32 0, align 4
@cigi_minor_version = internal global i32 0, align 4

; Function Attrs: null_pointer_is_valid sspstrong uwtable
define internal i32 @cigi3_3_add_symbol_surface_definition(ptr noundef %0, ptr noundef %1, ptr noundef %2, ptr noundef %3) #0 {
  %5 = alloca i32, align 4
  %6 = alloca ptr, align 8
  %7 = alloca ptr, align 8
  %8 = alloca ptr, align 8
  %9 = alloca ptr, align 8
  %10 = alloca i32, align 4
  %11 = alloca i32, align 4
  store ptr %0, ptr %6, align 8
  store ptr %1, ptr %7, align 8
  store ptr %2, ptr %8, align 8
  store ptr %3, ptr %9, align 8
  call void @llvm.lifetime.start.p0(i64 4, ptr %10) #5
  store i32 0, ptr %10, align 4
  %12 = load i32, ptr @cigi_minor_version, align 4
  %13 = icmp slt i32 %12, 3
  br i1 %13, label %14, label %16

14:                                               ; preds = %4
  %15 = load i32, ptr %10, align 4
  store i32 %15, ptr %5, align 4
  store i32 1, ptr %11, align 4
  br label %156

16:                                               ; preds = %4
  %17 = load ptr, ptr %8, align 8
  %18 = load i32, ptr @hf_cigi3_3_symbol_surface_definition_surface_id, align 4
  %19 = load ptr, ptr %6, align 8
  %20 = load i32, ptr %10, align 4
  %21 = load i32, ptr @cigi_byte_order, align 4
  %22 = call ptr @proto_tree_add_item(ptr noundef %17, i32 noundef %18, ptr noundef %19, i32 noundef %20, i32 noundef 2, i32 noundef %21)
  %23 = load i32, ptr %10, align 4
  %24 = add i32 %23, 2
  store i32 %24, ptr %10, align 4
  %25 = load ptr, ptr %8, align 8
  %26 = load i32, ptr @hf_cigi3_3_symbol_surface_definition_surface_state, align 4
  %27 = load ptr, ptr %6, align 8
  %28 = load i32, ptr %10, align 4
  %29 = load i32, ptr @cigi_byte_order, align 4
  %30 = call ptr @proto_tree_add_item(ptr noundef %25, i32 noundef %26, ptr noundef %27, i32 noundef %28, i32 noundef 1, i32 noundef %29)
  %31 = load ptr, ptr %8, align 8
  %32 = load i32, ptr @hf_cigi3_3_symbol_surface_definition_attach_type, align 4
  %33 = load ptr, ptr %6, align 8
  %34 = load i32, ptr %10, align 4
  %35 = load i32, ptr @cigi_byte_order, align 4
  %36 = call ptr @proto_tree_add_item(ptr noundef %31, i32 noundef %32, ptr noundef %33, i32 noundef %34, i32 noundef 1, i32 noundef %35)
  %37 = load ptr, ptr %8, align 8
  %38 = load i32, ptr @hf_cigi3_3_symbol_surface_definition_billboard, align 4
  %39 = load ptr, ptr %6, align 8
  %40 = load i32, ptr %10, align 4
  %41 = load i32, ptr @cigi_byte_order, align 4
  %42 = call ptr @proto_tree_add_item(ptr noundef %37, i32 noundef %38, ptr noundef %39, i32 noundef %40, i32 noundef 1, i32 noundef %41)
  %43 = load ptr, ptr %8, align 8
  %44 = load i32, ptr @hf_cigi3_3_symbol_surface_definition_perspective_growth_enable, align 4
  %45 = load ptr, ptr %6, align 8
  %46 = load i32, ptr %10, align 4
  %47 = load i32, ptr @cigi_byte_order, align 4
  %48 = call ptr @proto_tree_add_item(ptr noundef %43, i32 noundef %44, ptr noundef %45, i32 noundef %46, i32 noundef 1, i32 noundef %47)
  %49 = load i32, ptr %10, align 4
  %50 = add i32 %49, 2
  store i32 %50, ptr %10, align 4
  %51 = load ptr, ptr %8, align 8
  %52 = load i32, ptr @hf_cigi3_3_symbol_surface_definition_entity_view_id, align 4
  %53 = load ptr, ptr %6, align 8
  %54 = load i32, ptr %10, align 4
  %55 = load i32, ptr @cigi_byte_order, align 4
  %56 = call ptr @proto_tree_add_item(ptr noundef %51, i32 noundef %52, ptr noundef %53, i32 noundef %54, i32 noundef 2, i32 noundef %55)
  %57 = load i32, ptr %10, align 4
  %58 = add i32 %57, 2
  store i32 %58, ptr %10, align 4
  %59 = load ptr, ptr %8, align 8
  %60 = load i32, ptr @hf_cigi3_3_symbol_surface_definition_xoff_left, align 4
  %61 = load ptr, ptr %6, align 8
  %62 = load i32, ptr %10, align 4
  %63 = load i32, ptr @cigi_byte_order, align 4
  %64 = call ptr @proto_tree_add_item(ptr noundef %59, i32 noundef %60, ptr noundef %61, i32 noundef %62, i32 noundef 4, i32 noundef %63)
  %65 = load i32, ptr %10, align 4
  %66 = add i32 %65, 4
  store i32 %66, ptr %10, align 4
  %67 = load ptr, ptr %8, align 8
  %68 = load i32, ptr @hf_cigi3_3_symbol_surface_definition_yoff_right, align 4
  %69 = load ptr, ptr %6, align 8
  %70 = load i32, ptr %10, align 4
  %71 = load i32, ptr @cigi_byte_order, align 4
  %72 = call ptr @proto_tree_add_item(ptr noundef %67, i32 noundef %68, ptr noundef %69, i32 noundef %70, i32 noundef 4, i32 noundef %71)
  %73 = load i32, ptr %10, align 4
  %74 = add i32 %73, 4
  store i32 %74, ptr %10, align 4
  %75 = load ptr, ptr %8, align 8
  %76 = load i32, ptr @hf_cigi3_3_symbol_surface_definition_zoff_top, align 4
  %77 = load ptr, ptr %6, align 8
  %78 = load i32, ptr %10, align 4
  %79 = load i32, ptr @cigi_byte_order, align 4
  %80 = call ptr @proto_tree_add_item(ptr noundef %75, i32 noundef %76, ptr noundef %77, i32 noundef %78, i32 noundef 4, i32 noundef %79)
  %81 = load i32, ptr %10, align 4
  %82 = add i32 %81, 4
  store i32 %82, ptr %10, align 4
  %83 = load ptr, ptr %8, align 8
  %84 = load i32, ptr @hf_cigi3_3_symbol_surface_definition_yaw_bottom, align 4
  %85 = load ptr, ptr %6, align 8
  %86 = load i32, ptr %10, align 4
  %87 = load i32, ptr @cigi_byte_order, align 4
  %88 = call ptr @proto_tree_add_item(ptr noundef %83, i32 noundef %84, ptr noundef %85, i32 noundef %86, i32 noundef 4, i32 noundef %87)
  %89 = load i32, ptr %10, align 4
  %90 = add i32 %89, 4
  store i32 %90, ptr %10, align 4
  %91 = load ptr, ptr %8, align 8
  %92 = load i32, ptr @hf_cigi3_3_symbol_surface_definition_pitch, align 4
  %93 = load ptr, ptr %6, align 8
  %94 = load i32, ptr %10, align 4
  %95 = load i32, ptr @cigi_byte_order, align 4
  %96 = call ptr @proto_tree_add_item(ptr noundef %91, i32 noundef %92, ptr noundef %93, i32 noundef %94, i32 noundef 4, i32 noundef %95)
  %97 = load i32, ptr %10, align 4
  %98 = add i32 %97, 4
  store i32 %98, ptr %10, align 4
  %99 = load ptr, ptr %8, align 8
  %100 = load i32, ptr @hf_cigi3_3_symbol_surface_definition_roll, align 4
  %101 = load ptr, ptr %6, align 8
  %102 = load i32, ptr %10, align 4
  %103 = load i32, ptr @cigi_byte_order, align 4
  %104 = call ptr @proto_tree_add_item(ptr noundef %99, i32 noundef %100, ptr noundef %101, i32 noundef %102, i32 noundef 4, i32 noundef %103)
  %105 = load i32, ptr %10, align 4
  %106 = add i32 %105, 4
  store i32 %106, ptr %10, align 4
  %107 = load ptr, ptr %8, align 8
  %108 = load i32, ptr @hf_cigi3_3_symbol_surface_definition_width, align 4
  %109 = load ptr, ptr %6, align 8
  %110 = load i32, ptr %10, align 4
  %111 = load i32, ptr @cigi_byte_order, align 4
  %112 = call ptr @proto_tree_add_item(ptr noundef %107, i32 noundef %108, ptr noundef %109, i32 noundef %110, i32 noundef 4, i32 noundef %111)
  %113 = load i32, ptr %10, align 4
  %114 = add i32 %113, 4
  store i32 %114, ptr %10, align 4
  %115 = load ptr, ptr %8, align 8
  %116 = load i32, ptr @hf_cigi3_3_symbol_surface_definition_height, align 4
  %117 = load ptr, ptr %6, align 8
  %118 = load i32, ptr %10, align 4
  %119 = load i32, ptr @cigi_byte_order, align 4
  %120 = call ptr @proto_tree_add_item(ptr noundef %115, i32 noundef %116, ptr noundef %117, i32 noundef %118, i32 noundef 4, i32 noundef %119)
  %121 = load i32, ptr %10, align 4
  %122 = add i32 %121, 4
  store i32 %122, ptr %10, align 4
  %123 = load ptr, ptr %8, align 8
  %124 = load i32, ptr @hf_cigi3_3_symbol_surface_definition_min_u, align 4
  %125 = load ptr, ptr %6, align 8
  %126 = load i32, ptr %10, align 4
  %127 = load i32, ptr @cigi_byte_order, align 4
  %128 = call ptr @proto_tree_add_item(ptr noundef %123, i32 noundef %124, ptr noundef %125, i32 noundef %126, i32 noundef 4, i32 noundef %127)
  %129 = load i32, ptr %10, align 4
  %130 = add i32 %129, 4
  store i32 %130, ptr %10, align 4
  %131 = load ptr, ptr %8, align 8
  %132 = load i32, ptr @hf_cigi3_3_symbol_surface_definition_max_u, align 4
  %133 = load ptr, ptr %6, align 8
  %134 = load i32, ptr %10, align 4
  %135 = load i32, ptr @cigi_byte_order, align 4
  %136 = call ptr @proto_tree_add_item(ptr noundef %131, i32 noundef %132, ptr noundef %133, i32 noundef %134, i32 noundef 4, i32 noundef %135)
  %137 = load i32, ptr %10, align 4
  %138 = add i32 %137, 4
  store i32 %138, ptr %10, align 4
  %139 = load ptr, ptr %8, align 8
  %140 = load i32, ptr @hf_cigi3_3_symbol_surface_definition_min_v, align 4
  %141 = load ptr, ptr %6, align 8
  %142 = load i32, ptr %10, align 4
  %143 = load i32, ptr @cigi_byte_order, align 4
  %144 = call ptr @proto_tree_add_item(ptr noundef %139, i32 noundef %140, ptr noundef %141, i32 noundef %142, i32 noundef 4, i32 noundef %143)
  %145 = load i32, ptr %10, align 4
  %146 = add i32 %145, 4
  store i32 %146, ptr %10, align 4
  %147 = load ptr, ptr %8, align 8
  %148 = load i32, ptr @hf_cigi3_3_symbol_surface_definition_max_v, align 4
  %149 = load ptr, ptr %6, align 8
  %150 = load i32, ptr %10, align 4
  %151 = load i32, ptr @cigi_byte_order, align 4
  %152 = call ptr @proto_tree_add_item(ptr noundef %147, i32 noundef %148, ptr noundef %149, i32 noundef %150, i32 noundef 4, i32 noundef %151)
  %153 = load i32, ptr %10, align 4
  %154 = add i32 %153, 4
  store i32 %154, ptr %10, align 4
  %155 = load i32, ptr %10, align 4
  store i32 %155, ptr %5, align 4
  store i32 1, ptr %11, align 4
  br label %156

156:                                              ; preds = %16, %14
  call void @llvm.lifetime.end.p0(i64 4, ptr %10) #5
  %157 = load i32, ptr %5, align 4
  ret i32 %157
}